target datalayout = "e-m:e-p270:32:32-p271:32:32-p272:64:64-i64:64-i128:128-f80:128-n8:16:32:64-S128"
target triple = "x86_64-pc-linux-gnu"

%struct.H5VL_loc_params_t = type { i32, i32, %union.anon }
%union.anon = type { %struct.H5VL_loc_by_idx }
%struct.H5VL_loc_by_idx = type { ptr, i32, i32, i64, i64 }
%struct.H5VL_loc_by_name = type { ptr, i64 }
%struct.H5VL_optional_args_t = type { i32, ptr }
%union.H5VL_native_group_optional_args_t = type { %struct.H5VL_native_group_iterate_old_t }
%struct.H5VL_native_group_iterate_old_t = type { %struct.H5VL_loc_params_t, i64, ptr, ptr, ptr }
%struct.H5VL_native_group_get_objinfo_t = type { %struct.H5VL_loc_params_t, i8, ptr }

@H5_libinit_g = external global i8, align 1
@H5_libterm_g = external global i8, align 1
@.str = private unnamed_addr constant [103 x i8] c"generated/home/dtcxzyw/WorkSpace/Projects/compilers/llvm-opt-benchmark/bench/hdf5/hdf5/src/H5Gdeprec.c\00", align 1
@H5E_FUNC_g = external global i64, align 8
@H5E_CANTINIT_g = external global i64, align 8
@.str.1 = private unnamed_addr constant [30 x i8] c"library initialization failed\00", align 1
@H5E_CANTSET_g = external global i64, align 8
@.str.2 = private unnamed_addr constant [22 x i8] c"can't set API context\00", align 1
@H5E_ARGS_g = external global i64, align 8
@H5E_BADVALUE_g = external global i64, align 8
@H5E_BADTYPE_g = external global i64, align 8
@H5E_SYM_g = external global i64, align 8
@H5E_CANTGET_g = external global i64, align 8
@.str.10 = private unnamed_addr constant [40 x i8] c"can't set collective metadata read info\00", align 1
@.str.11 = private unnamed_addr constant [28 x i8] c"invalid location identifier\00", align 1
@H5P_LST_DATASET_XFER_ID_g = external global i64, align 8
@H5P_LST_LINK_ACCESS_ID_g = external global i64, align 8
@.str.26 = private unnamed_addr constant [18 x i8] c"no name specified\00", align 1
@__func__.H5Gget_objinfo = private unnamed_addr constant [15 x i8] c"H5Gget_objinfo\00", align 1
@.str.39 = private unnamed_addr constant [32 x i8] c"can't get info for object: '%s'\00", align 1

; Function Attrs: nounwind uwtable
define i32 @H5Gget_objinfo(i64 noundef %0, ptr noundef %1, i1 noundef zeroext %2, ptr noundef %3) #0 {
  %5 = alloca i64, align 8
  %6 = alloca ptr, align 8
  %7 = alloca i8, align 1
  %8 = alloca ptr, align 8
  %9 = alloca ptr, align 8
  %10 = alloca %struct.H5VL_optional_args_t, align 8
  %11 = alloca %union.H5VL_native_group_optional_args_t, align 8
  %12 = alloca i32, align 4
  %13 = alloca i8, align 1
  %14 = alloca i8, align 1
  store i64 %0, ptr %5, align 8
  store ptr %1, ptr %6, align 8
  %15 = zext i1 %2 to i8
  store i8 %15, ptr %7, align 1
  store ptr %3, ptr %8, align 8
  store ptr null, ptr %9, align 8
  store i32 0, ptr %12, align 4
  store i8 0, ptr %13, align 1
  store i8 0, ptr %14, align 1
  %16 = load i8, ptr @H5_libinit_g, align 1
  %17 = trunc i8 %16 to i1
  br i1 %17, label %22, label %18

18:                                               ; preds = %4
  %19 = load i8, ptr @H5_libterm_g, align 1
  %20 = trunc i8 %19 to i1
  %21 = xor i1 %20, true
  br label %22

22:                                               ; preds = %18, %4
  %23 = phi i1 [ false, %4 ], [ %21, %18 ]
  %24 = xor i1 %23, true
  %25 = xor i1 %24, true
  %26 = zext i1 %25 to i32
  %27 = sext i32 %26 to i64
  %28 = icmp ne i64 %27, 0
  br i1 %28, label %29, label %53

29:                                               ; preds = %22
  %30 = call i32 @H5_init_library()
  %31 = icmp slt i32 %30, 0
  %32 = xor i1 %31, true
  %33 = xor i1 %32, true
  %34 = zext i1 %33 to i32
  %35 = sext i32 %34 to i64
  %36 = icmp ne i64 %35, 0
  br i1 %36, label %37, label %52

37:                                               ; preds = %29
  br label %38

38:                                               ; preds = %37
  br label %39

39:                                               ; preds = %38
  br label %40

40:                                               ; preds = %39
  %41 = load i64, ptr @H5E_FUNC_g, align 8
  %42 = load i64, ptr @H5E_CANTINIT_g, align 8
  %43 = call i32 (ptr, ptr, i32, i64, i64, ptr, ...) @H5E_printf_stack(ptr noundef @.str, ptr noundef @__func__.H5Gget_objinfo, i32 noundef 922, i64 noundef %41, i64 noundef %42, ptr noundef @.str.1)
  br label %44

44:                                               ; preds = %40
  store i8 1, ptr %14, align 1
  %45 = load i8, ptr %14, align 1
  %46 = trunc i8 %45 to i1
  %47 = zext i1 %46 to i8
  store i8 %47, ptr %14, align 1
  br label %48

48:                                               ; preds = %44
  br label %49

49:                                               ; preds = %48
  store i32 -1, ptr %12, align 4
  br label %182

50:                                               ; No predecessors!
  br label %51

51:                                               ; preds = %50
  br label %52

52:                                               ; preds = %51, %29
  br label %53

53:                                               ; preds = %52, %22
  %54 = call i32 @H5CX_push()
  %55 = icmp slt i32 %54, 0
  %56 = xor i1 %55, true
  %57 = xor i1 %56, true
  %58 = zext i1 %57 to i32
  %59 = sext i32 %58 to i64
  %60 = icmp ne i64 %59, 0
  br i1 %60, label %61, label %76

61:                                               ; preds = %53
  br label %62

62:                                               ; preds = %61
  br label %63

63:                                               ; preds = %62
  br label %64

64:                                               ; preds = %63
  %65 = load i64, ptr @H5E_FUNC_g, align 8
  %66 = load i64, ptr @H5E_CANTSET_g, align 8
  %67 = call i32 (ptr, ptr, i32, i64, i64, ptr, ...) @H5E_printf_stack(ptr noundef @.str, ptr noundef @__func__.H5Gget_objinfo, i32 noundef 922, i64 noundef %65, i64 noundef %66, ptr noundef @.str.2)
  br label %68

68:                                               ; preds = %64
  store i8 1, ptr %14, align 1
  %69 = load i8, ptr %14, align 1
  %70 = trunc i8 %69 to i1
  %71 = zext i1 %70 to i8
  store i8 %71, ptr %14, align 1
  br label %72

72:                                               ; preds = %68
  br label %73

73:                                               ; preds = %72
  store i32 -1, ptr %12, align 4
  br label %182

74:                                               ; No predecessors!
  br label %75

75:                                               ; preds = %74
  br label %77

76:                                               ; preds = %53
  store i8 1, ptr %13, align 1
  br label %77

77:                                               ; preds = %76, %75
  %78 = call i32 @H5E_clear_stack()
  %79 = load ptr, ptr %6, align 8
  %80 = icmp ne ptr %79, null
  br i1 %80, label %81, label %85

81:                                               ; preds = %77
  %82 = load ptr, ptr %6, align 8
  %83 = load i8, ptr %82, align 1
  %84 = icmp ne i8 %83, 0
  br i1 %84, label %100, label %85

85:                                               ; preds = %81, %77
  br label %86

86:                                               ; preds = %85
  br label %87

87:                                               ; preds = %86
  br label %88

88:                                               ; preds = %87
  %89 = load i64, ptr @H5E_ARGS_g, align 8
  %90 = load i64, ptr @H5E_BADVALUE_g, align 8
  %91 = call i32 (ptr, ptr, i32, i64, i64, ptr, ...) @H5E_printf_stack(ptr noundef @.str, ptr noundef @__func__.H5Gget_objinfo, i32 noundef 926, i64 noundef %89, i64 noundef %90, ptr noundef @.str.26)
  br label %92

92:                                               ; preds = %88
  store i8 1, ptr %14, align 1
  %93 = load i8, ptr %14, align 1
  %94 = trunc i8 %93 to i1
  %95 = zext i1 %94 to i8
  store i8 %95, ptr %14, align 1
  br label %96

96:                                               ; preds = %92
  br label %97

97:                                               ; preds = %96
  store i32 -1, ptr %12, align 4
  br label %182

98:                                               ; No predecessors!
  br label %99

99:                                               ; preds = %98
  br label %100

100:                                              ; preds = %99, %81
  %101 = load i64, ptr %5, align 8
  %102 = call i32 @H5CX_set_loc(i64 noundef %101)
  %103 = icmp slt i32 %102, 0
  br i1 %103, label %104, label %119

104:                                              ; preds = %100
  br label %105

105:                                              ; preds = %104
  br label %106

106:                                              ; preds = %105
  br label %107

107:                                              ; preds = %106
  %108 = load i64, ptr @H5E_SYM_g, align 8
  %109 = load i64, ptr @H5E_CANTSET_g, align 8
  %110 = call i32 (ptr, ptr, i32, i64, i64, ptr, ...) @H5E_printf_stack(ptr noundef @.str, ptr noundef @__func__.H5Gget_objinfo, i32 noundef 930, i64 noundef %108, i64 noundef %109, ptr noundef @.str.10)
  br label %111

111:                                              ; preds = %107
  store i8 1, ptr %14, align 1
  %112 = load i8, ptr %14, align 1
  %113 = trunc i8 %112 to i1
  %114 = zext i1 %113 to i8
  store i8 %114, ptr %14, align 1
  br label %115

115:                                              ; preds = %111
  br label %116

116:                                              ; preds = %115
  store i32 -1, ptr %12, align 4
  br label %182

117:                                              ; No predecessors!
  br label %118

118:                                              ; preds = %117
  br label %119

119:                                              ; preds = %118, %100
  %120 = load i64, ptr %5, align 8
  %121 = call ptr @H5VL_vol_object(i64 noundef %120)
  store ptr %121, ptr %9, align 8
  %122 = icmp eq ptr null, %121
  br i1 %122, label %123, label %138

123:                                              ; preds = %119
  br label %124

124:                                              ; preds = %123
  br label %125

125:                                              ; preds = %124
  br label %126

126:                                              ; preds = %125
  %127 = load i64, ptr @H5E_ARGS_g, align 8
  %128 = load i64, ptr @H5E_BADTYPE_g, align 8
  %129 = call i32 (ptr, ptr, i32, i64, i64, ptr, ...) @H5E_printf_stack(ptr noundef @.str, ptr noundef @__func__.H5Gget_objinfo, i32 noundef 934, i64 noundef %127, i64 noundef %128, ptr noundef @.str.11)
  br label %130

130:                                              ; preds = %126
  store i8 1, ptr %14, align 1
  %131 = load i8, ptr %14, align 1
  %132 = trunc i8 %131 to i1
  %133 = zext i1 %132 to i8
  store i8 %133, ptr %14, align 1
  br label %134

134:                                              ; preds = %130
  br label %135

135:                                              ; preds = %134
  store i32 -1, ptr %12, align 4
  br label %182

136:                                              ; No predecessors!
  br label %137

137:                                              ; preds = %136
  br label %138

138:                                              ; preds = %137, %119
  %139 = getelementptr inbounds %struct.H5VL_native_group_get_objinfo_t, ptr %11, i32 0, i32 0
  %140 = getelementptr inbounds %struct.H5VL_loc_params_t, ptr %139, i32 0, i32 1
  store i32 1, ptr %140, align 4
  %141 = load ptr, ptr %6, align 8
  %142 = getelementptr inbounds %struct.H5VL_native_group_get_objinfo_t, ptr %11, i32 0, i32 0
  %143 = getelementptr inbounds %struct.H5VL_loc_params_t, ptr %142, i32 0, i32 2
  %144 = getelementptr inbounds %struct.H5VL_loc_by_name, ptr %143, i32 0, i32 0
  store ptr %141, ptr %144, align 8
  %145 = load i64, ptr @H5P_LST_LINK_ACCESS_ID_g, align 8
  %146 = getelementptr inbounds %struct.H5VL_native_group_get_objinfo_t, ptr %11, i32 0, i32 0
  %147 = getelementptr inbounds %struct.H5VL_loc_params_t, ptr %146, i32 0, i32 2
  %148 = getelementptr inbounds %struct.H5VL_loc_by_name, ptr %147, i32 0, i32 1
  store i64 %145, ptr %148, align 8
  %149 = load i64, ptr %5, align 8
  %150 = call i32 @H5I_get_type(i64 noundef %149)
  %151 = getelementptr inbounds %struct.H5VL_native_group_get_objinfo_t, ptr %11, i32 0, i32 0
  %152 = getelementptr inbounds %struct.H5VL_loc_params_t, ptr %151, i32 0, i32 0
  store i32 %150, ptr %152, align 8
  %153 = load i8, ptr %7, align 1
  %154 = trunc i8 %153 to i1
  %155 = getelementptr inbounds %struct.H5VL_native_group_get_objinfo_t, ptr %11, i32 0, i32 1
  %156 = zext i1 %154 to i8
  store i8 %156, ptr %155, align 8
  %157 = load ptr, ptr %8, align 8
  %158 = getelementptr inbounds %struct.H5VL_native_group_get_objinfo_t, ptr %11, i32 0, i32 2
  store ptr %157, ptr %158, align 8
  %159 = getelementptr inbounds %struct.H5VL_optional_args_t, ptr %10, i32 0, i32 0
  store i32 1, ptr %159, align 8
  %160 = getelementptr inbounds %struct.H5VL_optional_args_t, ptr %10, i32 0, i32 1
  store ptr %11, ptr %160, align 8
  %161 = load ptr, ptr %9, align 8
  %162 = load i64, ptr @H5P_LST_DATASET_XFER_ID_g, align 8
  %163 = call i32 @H5VL_group_optional(ptr noundef %161, ptr noundef %10, i64 noundef %162, ptr noundef null)
  %164 = icmp slt i32 %163, 0
  br i1 %164, label %165, label %181

165:                                              ; preds = %138
  br label %166

166:                                              ; preds = %165
  br label %167

167:                                              ; preds = %166
  br label %168

168:                                              ; preds = %167
  %169 = load i64, ptr @H5E_SYM_g, align 8
  %170 = load i64, ptr @H5E_CANTGET_g, align 8
  %171 = load ptr, ptr %6, align 8
  %172 = call i32 (ptr, ptr, i32, i64, i64, ptr, ...) @H5E_printf_stack(ptr noundef @.str, ptr noundef @__func__.H5Gget_objinfo, i32 noundef 948, i64 noundef %169, i64 noundef %170, ptr noundef @.str.39, ptr noundef %171)
  br label %173

173:                                              ; preds = %168
  store i8 1, ptr %14, align 1
  %174 = load i8, ptr %14, align 1
  %175 = trunc i8 %174 to i1
  %176 = zext i1 %175 to i8
  store i8 %176, ptr %14, align 1
  br label %177

177:                                              ; preds = %173
  br label %178

178:                                              ; preds = %177
  store i32 -1, ptr %12, align 4
  br label %182

179:                                              ; No predecessors!
  br label %180

180:                                              ; preds = %179
  br label %181

181:                                              ; preds = %180, %138
  br label %182

182:                                              ; preds = %181, %178, %135, %116, %97, %73, %49
  %183 = load i8, ptr %13, align 1
  %184 = trunc i8 %183 to i1
  %185 = xor i1 %184, true
  %186 = xor i1 %185, true
  %187 = zext i1 %186 to i32
  %188 = sext i32 %187 to i64
  %189 = icmp ne i64 %188, 0
  br i1 %189, label %190, label %192

190:                                              ; preds = %182
  %191 = call i32 @H5CX_pop(i1 noundef zeroext true)
  store i8 0, ptr %13, align 1
  br label %192

192:                                              ; preds = %190, %182
  %193 = load i8, ptr %14, align 1
  %194 = trunc i8 %193 to i1
  %195 = xor i1 %194, true
  %196 = xor i1 %195, true
  %197 = zext i1 %196 to i32
  %198 = sext i32 %197 to i64
  %199 = icmp ne i64 %198, 0
  br i1 %199, label %200, label %202

200:                                              ; preds = %192
  %201 = call i32 @H5E_dump_api_stack()
  br label %202

202:                                              ; preds = %200, %192
  %203 = load i32, ptr %12, align 4
  ret i32 %203
}