; Function Attrs: nounwind uwtable
define range(i32 -1, 1) i32 @H5Gget_objinfo(i64 noundef %0, ptr noundef %1, i1 noundef zeroext %2, ptr noundef %3) local_unnamed_addr #1 {
  %5 = alloca %struct.H5VL_optional_args_t, align 8
  %6 = alloca %union.H5VL_native_group_optional_args_t, align 8
  %7 = zext i1 %2 to i8
  %8 = load i8, ptr @H5_libinit_g, align 1
  %9 = trunc i8 %8 to i1
  %10 = load i8, ptr @H5_libterm_g, align 1
  %11 = trunc i8 %10 to i1
  %12 = select i1 %9, i1 true, i1 %11
  br i1 %12, label %20, label %13

13:                                               ; preds = %4
  %14 = tail call i32 @H5_init_library() #4
  %15 = icmp slt i32 %14, 0
  br i1 %15, label %16, label %20

16:                                               ; preds = %13
  %17 = load i64, ptr @H5E_FUNC_g, align 8
  %18 = load i64, ptr @H5E_CANTINIT_g, align 8
  %19 = tail call i32 (ptr, ptr, i32, i64, i64, ptr, ...) @H5E_printf_stack(ptr noundef nonnull @.str, ptr noundef nonnull @__func__.H5Gget_objinfo, i32 noundef 922, i64 noundef %17, i64 noundef %18, ptr noundef nonnull @.str.1) #4
  br label %.thread31

20:                                               ; preds = %13, %4
  %21 = tail call i32 @H5CX_push() #4
  %22 = icmp slt i32 %21, 0
  br i1 %22, label %23, label %27

23:                                               ; preds = %20
  %24 = load i64, ptr @H5E_FUNC_g, align 8
  %25 = load i64, ptr @H5E_CANTSET_g, align 8
  %26 = tail call i32 (ptr, ptr, i32, i64, i64, ptr, ...) @H5E_printf_stack(ptr noundef nonnull @.str, ptr noundef nonnull @__func__.H5Gget_objinfo, i32 noundef 922, i64 noundef %24, i64 noundef %25, ptr noundef nonnull @.str.2) #4
  br label %.thread31

27:                                               ; preds = %20
  %28 = tail call i32 @H5E_clear_stack() #4
  %.not = icmp eq ptr %1, null
  br i1 %.not, label %31, label %29

29:                                               ; preds = %27
  %30 = load i8, ptr %1, align 1
  %.not22 = icmp eq i8 %30, 0
  br i1 %.not22, label %31, label %35

31:                                               ; preds = %27, %29
  %32 = load i64, ptr @H5E_ARGS_g, align 8
  %33 = load i64, ptr @H5E_BADVALUE_g, align 8
  %34 = tail call i32 (ptr, ptr, i32, i64, i64, ptr, ...) @H5E_printf_stack(ptr noundef nonnull @.str, ptr noundef nonnull @__func__.H5Gget_objinfo, i32 noundef 926, i64 noundef %32, i64 noundef %33, ptr noundef nonnull @.str.26) #4
  br label %.thread37

35:                                               ; preds = %29
  %36 = tail call i32 @H5CX_set_loc(i64 noundef %0) #4
  %37 = icmp slt i32 %36, 0
  br i1 %37, label %38, label %42

38:                                               ; preds = %35
  %39 = load i64, ptr @H5E_SYM_g, align 8
  %40 = load i64, ptr @H5E_CANTSET_g, align 8
  %41 = tail call i32 (ptr, ptr, i32, i64, i64, ptr, ...) @H5E_printf_stack(ptr noundef nonnull @.str, ptr noundef nonnull @__func__.H5Gget_objinfo, i32 noundef 930, i64 noundef %39, i64 noundef %40, ptr noundef nonnull @.str.10) #4
  br label %.thread37

42:                                               ; preds = %35
  %43 = tail call ptr @H5VL_vol_object(i64 noundef %0) #4
  %44 = icmp eq ptr %43, null
  br i1 %44, label %45, label %49

45:                                               ; preds = %42
  %46 = load i64, ptr @H5E_ARGS_g, align 8
  %47 = load i64, ptr @H5E_BADTYPE_g, align 8
  %48 = tail call i32 (ptr, ptr, i32, i64, i64, ptr, ...) @H5E_printf_stack(ptr noundef nonnull @.str, ptr noundef nonnull @__func__.H5Gget_objinfo, i32 noundef 934, i64 noundef %46, i64 noundef %47, ptr noundef nonnull @.str.11) #4
  br label %.thread37

49:                                               ; preds = %42
  %50 = getelementptr inbounds i8, ptr %6, i64 4
  store i32 1, ptr %50, align 4
  %51 = getelementptr inbounds i8, ptr %6, i64 8
  store ptr %1, ptr %51, align 8
  %52 = load i64, ptr @H5P_LST_LINK_ACCESS_ID_g, align 8
  %53 = getelementptr inbounds i8, ptr %6, i64 16
  store i64 %52, ptr %53, align 8
  %54 = tail call i32 @H5I_get_type(i64 noundef %0) #4
  store i32 %54, ptr %6, align 8
  %55 = getelementptr inbounds i8, ptr %6, i64 40
  store i8 %7, ptr %55, align 8
  %56 = getelementptr inbounds i8, ptr %6, i64 48
  store ptr %3, ptr %56, align 8
  store i32 1, ptr %5, align 8
  %57 = getelementptr inbounds i8, ptr %5, i64 8
  store ptr %6, ptr %57, align 8
  %58 = load i64, ptr @H5P_LST_DATASET_XFER_ID_g, align 8
  %59 = call i32 @H5VL_group_optional(ptr noundef nonnull %43, ptr noundef nonnull %5, i64 noundef %58, ptr noundef null) #4
  %60 = icmp slt i32 %59, 0
  br i1 %60, label %61, label %66

61:                                               ; preds = %49
  %62 = load i64, ptr @H5E_SYM_g, align 8
  %63 = load i64, ptr @H5E_CANTGET_g, align 8
  %64 = call i32 (ptr, ptr, i32, i64, i64, ptr, ...) @H5E_printf_stack(ptr noundef nonnull @.str, ptr noundef nonnull @__func__.H5Gget_objinfo, i32 noundef 948, i64 noundef %62, i64 noundef %63, ptr noundef nonnull @.str.39, ptr noundef nonnull %1) #4
  br label %.thread37

.thread37:                                        ; preds = %31, %61, %45, %38
  %65 = call i32 @H5CX_pop(i1 noundef zeroext true) #4
  br label %.thread31

66:                                               ; preds = %49
  %67 = call i32 @H5CX_pop(i1 noundef zeroext true) #4
  br label %69

.thread31:                                        ; preds = %23, %16, %.thread37
  %68 = call i32 @H5E_dump_api_stack() #4
  br label %69

69:                                               ; preds = %66, %.thread31
  %.0192634 = phi i32 [ -1, %.thread31 ], [ 0, %66 ]
  ret i32 %.0192634
}